; ModuleID = '14/491.c'
source_filename = "14/491.c"
target datalayout = "e-m:e-p270:32:32-p271:32:32-p272:64:64-i64:64-f80:128-n8:16:32:64-S128"
target triple = "x86_64-pc-linux-gnu"

%struct.student = type { i32, i32, i32, i32 }

@.str = private unnamed_addr constant [3 x i8] c"%d\00", align 1
@.str.1 = private unnamed_addr constant [9 x i8] c"%d %d %d\00", align 1
@.str.2 = private unnamed_addr constant [7 x i8] c"%d %d\0A\00", align 1

; Function Attrs: noinline nounwind uwtable
define dso_local i32 @main() #0 {
  %1 = alloca i32, align 4
  %2 = alloca [100000 x %struct.student], align 16
  %3 = alloca i32, align 4
  %4 = alloca i32, align 4
  %5 = alloca i32, align 4
  %6 = alloca i32, align 4
  %7 = alloca [10 x i8], align 1
  store i32 0, i32* %1, align 4
  %8 = call i32 (i8*, ...) @__isoc99_scanf(i8* getelementptr inbounds ([3 x i8], [3 x i8]* @.str, i64 0, i64 0), i32* %3)
  store i32 0, i32* %4, align 4
  br label %9

9:                                                ; preds = %42, %0
  %10 = load i32, i32* %4, align 4
  %11 = load i32, i32* %3, align 4
  %12 = icmp slt i32 %10, %11
  br i1 %12, label %13, label %45

13:                                               ; preds = %9
  %14 = load i32, i32* %4, align 4
  %15 = sext i32 %14 to i64
  %16 = getelementptr inbounds [100000 x %struct.student], [100000 x %struct.student]* %2, i64 0, i64 %15
  %17 = getelementptr inbounds %struct.student, %struct.student* %16, i32 0, i32 0
  %18 = load i32, i32* %4, align 4
  %19 = sext i32 %18 to i64
  %20 = getelementptr inbounds [100000 x %struct.student], [100000 x %struct.student]* %2, i64 0, i64 %19
  %21 = getelementptr inbounds %struct.student, %struct.student* %20, i32 0, i32 1
  %22 = load i32, i32* %4, align 4
  %23 = sext i32 %22 to i64
  %24 = getelementptr inbounds [100000 x %struct.student], [100000 x %struct.student]* %2, i64 0, i64 %23
  %25 = getelementptr inbounds %struct.student, %struct.student* %24, i32 0, i32 2
  %26 = call i32 (i8*, ...) @__isoc99_scanf(i8* getelementptr inbounds ([9 x i8], [9 x i8]* @.str.1, i64 0, i64 0), i32* %17, i32* %21, i32* %25)
  %27 = load i32, i32* %4, align 4
  %28 = sext i32 %27 to i64
  %29 = getelementptr inbounds [100000 x %struct.student], [100000 x %struct.student]* %2, i64 0, i64 %28
  %30 = getelementptr inbounds %struct.student, %struct.student* %29, i32 0, i32 1
  %31 = load i32, i32* %30, align 4
  %32 = load i32, i32* %4, align 4
  %33 = sext i32 %32 to i64
  %34 = getelementptr inbounds [100000 x %struct.student], [100000 x %struct.student]* %2, i64 0, i64 %33
  %35 = getelementptr inbounds %struct.student, %struct.student* %34, i32 0, i32 2
  %36 = load i32, i32* %35, align 8
  %37 = add nsw i32 %31, %36
  %38 = load i32, i32* %4, align 4
  %39 = sext i32 %38 to i64
  %40 = getelementptr inbounds [100000 x %struct.student], [100000 x %struct.student]* %2, i64 0, i64 %39
  %41 = getelementptr inbounds %struct.student, %struct.student* %40, i32 0, i32 3
  store i32 %37, i32* %41, align 4
  br label %42

42:                                               ; preds = %13
  %43 = load i32, i32* %4, align 4
  %44 = add nsw i32 %43, 1
  store i32 %44, i32* %4, align 4
  br label %9

45:                                               ; preds = %9
  store i32 0, i32* %4, align 4
  br label %46

46:                                               ; preds = %123, %45
  %47 = load i32, i32* %4, align 4
  %48 = icmp slt i32 %47, 3
  br i1 %48, label %49, label %126

49:                                               ; preds = %46
  %50 = load i32, i32* %4, align 4
  %51 = add nsw i32 %50, 1
  store i32 %51, i32* %5, align 4
  br label %52

52:                                               ; preds = %108, %49
  %53 = load i32, i32* %5, align 4
  %54 = load i32, i32* %3, align 4
  %55 = icmp slt i32 %53, %54
  br i1 %55, label %56, label %111

56:                                               ; preds = %52
  %57 = load i32, i32* %4, align 4
  %58 = sext i32 %57 to i64
  %59 = getelementptr inbounds [100000 x %struct.student], [100000 x %struct.student]* %2, i64 0, i64 %58
  %60 = getelementptr inbounds %struct.student, %struct.student* %59, i32 0, i32 3
  %61 = load i32, i32* %60, align 4
  %62 = load i32, i32* %5, align 4
  %63 = sext i32 %62 to i64
  %64 = getelementptr inbounds [100000 x %struct.student], [100000 x %struct.student]* %2, i64 0, i64 %63
  %65 = getelementptr inbounds %struct.student, %struct.student* %64, i32 0, i32 3
  %66 = load i32, i32* %65, align 4
  %67 = icmp slt i32 %61, %66
  br i1 %67, label %68, label %107

68:                                               ; preds = %56
  %69 = load i32, i32* %4, align 4
  %70 = sext i32 %69 to i64
  %71 = getelementptr inbounds [100000 x %struct.student], [100000 x %struct.student]* %2, i64 0, i64 %70
  %72 = getelementptr inbounds %struct.student, %struct.student* %71, i32 0, i32 3
  %73 = load i32, i32* %72, align 4
  store i32 %73, i32* %6, align 4
  %74 = load i32, i32* %5, align 4
  %75 = sext i32 %74 to i64
  %76 = getelementptr inbounds [100000 x %struct.student], [100000 x %struct.student]* %2, i64 0, i64 %75
  %77 = getelementptr inbounds %struct.student, %struct.student* %76, i32 0, i32 3
  %78 = load i32, i32* %77, align 4
  %79 = load i32, i32* %4, align 4
  %80 = sext i32 %79 to i64
  %81 = getelementptr inbounds [100000 x %struct.student], [100000 x %struct.student]* %2, i64 0, i64 %80
  %82 = getelementptr inbounds %struct.student, %struct.student* %81, i32 0, i32 3
  store i32 %78, i32* %82, align 4
  %83 = load i32, i32* %6, align 4
  %84 = load i32, i32* %5, align 4
  %85 = sext i32 %84 to i64
  %86 = getelementptr inbounds [100000 x %struct.student], [100000 x %struct.student]* %2, i64 0, i64 %85
  %87 = getelementptr inbounds %struct.student, %struct.student* %86, i32 0, i32 3
  store i32 %83, i32* %87, align 4
  %88 = load i32, i32* %4, align 4
  %89 = sext i32 %88 to i64
  %90 = getelementptr inbounds [100000 x %struct.student], [100000 x %struct.student]* %2, i64 0, i64 %89
  %91 = getelementptr inbounds %struct.student, %struct.student* %90, i32 0, i32 0
  %92 = load i32, i32* %91, align 16
  store i32 %92, i32* %6, align 4
  %93 = load i32, i32* %5, align 4
  %94 = sext i32 %93 to i64
  %95 = getelementptr inbounds [100000 x %struct.student], [100000 x %struct.student]* %2, i64 0, i64 %94
  %96 = getelementptr inbounds %struct.student, %struct.student* %95, i32 0, i32 0
  %97 = load i32, i32* %96, align 16
  %98 = load i32, i32* %4, align 4
  %99 = sext i32 %98 to i64
  %100 = getelementptr inbounds [100000 x %struct.student], [100000 x %struct.student]* %2, i64 0, i64 %99
  %101 = getelementptr inbounds %struct.student, %struct.student* %100, i32 0, i32 0
  store i32 %97, i32* %101, align 16
  %102 = load i32, i32* %6, align 4
  %103 = load i32, i32* %5, align 4
  %104 = sext i32 %103 to i64
  %105 = getelementptr inbounds [100000 x %struct.student], [100000 x %struct.student]* %2, i64 0, i64 %104
  %106 = getelementptr inbounds %struct.student, %struct.student* %105, i32 0, i32 0
  store i32 %102, i32* %106, align 16
  br label %107

107:                                              ; preds = %68, %56
  br label %108

108:                                              ; preds = %107
  %109 = load i32, i32* %5, align 4
  %110 = add nsw i32 %109, 1
  store i32 %110, i32* %5, align 4
  br label %52

111:                                              ; preds = %52
  %112 = load i32, i32* %4, align 4
  %113 = sext i32 %112 to i64
  %114 = getelementptr inbounds [100000 x %struct.student], [100000 x %struct.student]* %2, i64 0, i64 %113
  %115 = getelementptr inbounds %struct.student, %struct.student* %114, i32 0, i32 0
  %116 = load i32, i32* %115, align 16
  %117 = load i32, i32* %4, align 4
  %118 = sext i32 %117 to i64
  %119 = getelementptr inbounds [100000 x %struct.student], [100000 x %struct.student]* %2, i64 0, i64 %118
  %120 = getelementptr inbounds %struct.student, %struct.student* %119, i32 0, i32 3
  %121 = load i32, i32* %120, align 4
  %122 = call i32 (i8*, ...) @printf(i8* getelementptr inbounds ([7 x i8], [7 x i8]* @.str.2, i64 0, i64 0), i32 %116, i32 %121)
  br label %123

123:                                              ; preds = %111
  %124 = load i32, i32* %4, align 4
  %125 = add nsw i32 %124, 1
  store i32 %125, i32* %4, align 4
  br label %46

126:                                              ; preds = %46
  ret i32 0
}

declare dso_local i32 @__isoc99_scanf(i8*, ...) #1

declare dso_local i32 @printf(i8*, ...) #1


!llvm.module.flags = !{!0}
!llvm.ident = !{!1}

!0 = !{i32 1, !"wchar_size", i32 4}
!1 = !{!"clang version 10.0.0-4ubuntu1 "}
